; ModuleID = '12/89.c'
source_filename = "12/89.c"
target datalayout = "e-m:e-p270:32:32-p271:32:32-p272:64:64-i64:64-f80:128-n8:16:32:64-S128"
target triple = "x86_64-pc-linux-gnu"

@.str = private unnamed_addr constant [3 x i8] c"%d\00", align 1
@.str.1 = private unnamed_addr constant [4 x i8] c"%d\0A\00", align 1

; Function Attrs: noinline nounwind uwtable
define dso_local i32 @main() #0 {
  %1 = alloca i32, align 4
  %2 = alloca [100 x [100 x i32]], align 16
  %3 = alloca i32, align 4
  %4 = alloca i32, align 4
  %5 = alloca i32, align 4
  %6 = alloca [100 x i32], align 16
  %7 = alloca i32, align 4
  %8 = alloca i32, align 4
  %9 = alloca i32, align 4
  %10 = alloca [100 x i32], align 16
  %11 = alloca double, align 8
  store i32 0, i32* %1, align 4
  store i32 0, i32* %3, align 4
  br label %12

12:                                               ; preds = %59, %0
  %13 = load i32, i32* %3, align 4
  %14 = icmp slt i32 %13, 100
  br i1 %14, label %15, label %62

15:                                               ; preds = %12
  %16 = load i32, i32* %3, align 4
  %17 = sext i32 %16 to i64
  %18 = getelementptr inbounds [100 x [100 x i32]], [100 x [100 x i32]]* %2, i64 0, i64 %17
  %19 = getelementptr inbounds [100 x i32], [100 x i32]* %18, i64 0, i64 0
  %20 = call i32 (i8*, ...) @__isoc99_scanf(i8* getelementptr inbounds ([3 x i8], [3 x i8]* @.str, i64 0, i64 0), i32* %19)
  %21 = load i32, i32* %3, align 4
  %22 = sext i32 %21 to i64
  %23 = getelementptr inbounds [100 x [100 x i32]], [100 x [100 x i32]]* %2, i64 0, i64 %22
  %24 = getelementptr inbounds [100 x i32], [100 x i32]* %23, i64 0, i64 0
  %25 = load i32, i32* %24, align 16
  %26 = icmp eq i32 %25, -1
  br i1 %26, label %27, label %28

27:                                               ; preds = %15
  br label %62

28:                                               ; preds = %15
  store i32 1, i32* %5, align 4
  br label %29

29:                                               ; preds = %54, %28
  %30 = load i32, i32* %5, align 4
  %31 = icmp slt i32 %30, 100
  br i1 %31, label %32, label %57

32:                                               ; preds = %29
  %33 = load i32, i32* %3, align 4
  %34 = sext i32 %33 to i64
  %35 = getelementptr inbounds [100 x [100 x i32]], [100 x [100 x i32]]* %2, i64 0, i64 %34
  %36 = load i32, i32* %5, align 4
  %37 = sext i32 %36 to i64
  %38 = getelementptr inbounds [100 x i32], [100 x i32]* %35, i64 0, i64 %37
  %39 = call i32 (i8*, ...) @__isoc99_scanf(i8* getelementptr inbounds ([3 x i8], [3 x i8]* @.str, i64 0, i64 0), i32* %38)
  %40 = load i32, i32* %3, align 4
  %41 = sext i32 %40 to i64
  %42 = getelementptr inbounds [100 x [100 x i32]], [100 x [100 x i32]]* %2, i64 0, i64 %41
  %43 = load i32, i32* %5, align 4
  %44 = sext i32 %43 to i64
  %45 = getelementptr inbounds [100 x i32], [100 x i32]* %42, i64 0, i64 %44
  %46 = load i32, i32* %45, align 4
  %47 = icmp eq i32 %46, 0
  br i1 %47, label %48, label %49

48:                                               ; preds = %32
  br label %57

49:                                               ; preds = %32
  %50 = load i32, i32* %5, align 4
  %51 = load i32, i32* %3, align 4
  %52 = sext i32 %51 to i64
  %53 = getelementptr inbounds [100 x i32], [100 x i32]* %10, i64 0, i64 %52
  store i32 %50, i32* %53, align 4
  br label %54

54:                                               ; preds = %49
  %55 = load i32, i32* %5, align 4
  %56 = add nsw i32 %55, 1
  store i32 %56, i32* %5, align 4
  br label %29

57:                                               ; preds = %48, %29
  br label %58

58:                                               ; preds = %57
  br label %59

59:                                               ; preds = %58
  %60 = load i32, i32* %3, align 4
  %61 = add nsw i32 %60, 1
  store i32 %61, i32* %3, align 4
  br label %12

62:                                               ; preds = %27, %12
  store i32 0, i32* %4, align 4
  br label %63

63:                                               ; preds = %128, %62
  %64 = load i32, i32* %4, align 4
  %65 = load i32, i32* %3, align 4
  %66 = icmp slt i32 %64, %65
  br i1 %66, label %67, label %131

67:                                               ; preds = %63
  %68 = load i32, i32* %4, align 4
  %69 = sext i32 %68 to i64
  %70 = getelementptr inbounds [100 x i32], [100 x i32]* %6, i64 0, i64 %69
  store i32 0, i32* %70, align 4
  store i32 0, i32* %7, align 4
  br label %71

71:                                               ; preds = %124, %67
  %72 = load i32, i32* %7, align 4
  %73 = load i32, i32* %4, align 4
  %74 = sext i32 %73 to i64
  %75 = getelementptr inbounds [100 x i32], [100 x i32]* %10, i64 0, i64 %74
  %76 = load i32, i32* %75, align 4
  %77 = icmp sle i32 %72, %76
  br i1 %77, label %78, label %127

78:                                               ; preds = %71
  %79 = load i32, i32* %7, align 4
  store i32 %79, i32* %9, align 4
  br label %80

80:                                               ; preds = %120, %78
  %81 = load i32, i32* %9, align 4
  %82 = load i32, i32* %4, align 4
  %83 = sext i32 %82 to i64
  %84 = getelementptr inbounds [100 x i32], [100 x i32]* %10, i64 0, i64 %83
  %85 = load i32, i32* %84, align 4
  %86 = icmp sle i32 %81, %85
  br i1 %86, label %87, label %123

87:                                               ; preds = %80
  %88 = load i32, i32* %4, align 4
  %89 = sext i32 %88 to i64
  %90 = getelementptr inbounds [100 x [100 x i32]], [100 x [100 x i32]]* %2, i64 0, i64 %89
  %91 = load i32, i32* %7, align 4
  %92 = sext i32 %91 to i64
  %93 = getelementptr inbounds [100 x i32], [100 x i32]* %90, i64 0, i64 %92
  %94 = load i32, i32* %93, align 4
  %95 = sitofp i32 %94 to double
  %96 = load i32, i32* %4, align 4
  %97 = sext i32 %96 to i64
  %98 = getelementptr inbounds [100 x [100 x i32]], [100 x [100 x i32]]* %2, i64 0, i64 %97
  %99 = load i32, i32* %9, align 4
  %100 = sext i32 %99 to i64
  %101 = getelementptr inbounds [100 x i32], [100 x i32]* %98, i64 0, i64 %100
  %102 = load i32, i32* %101, align 4
  %103 = sitofp i32 %102 to double
  %104 = fdiv double %95, %103
  store double %104, double* %11, align 8
  %105 = load double, double* %11, align 8
  %106 = fcmp oeq double %105, 2.000000e+00
  br i1 %106, label %110, label %107

107:                                              ; preds = %87
  %108 = load double, double* %11, align 8
  %109 = fcmp oeq double %108, 5.000000e-01
  br i1 %109, label %110, label %119

110:                                              ; preds = %107, %87
  %111 = load i32, i32* %4, align 4
  %112 = sext i32 %111 to i64
  %113 = getelementptr inbounds [100 x i32], [100 x i32]* %6, i64 0, i64 %112
  %114 = load i32, i32* %113, align 4
  %115 = add nsw i32 %114, 1
  %116 = load i32, i32* %4, align 4
  %117 = sext i32 %116 to i64
  %118 = getelementptr inbounds [100 x i32], [100 x i32]* %6, i64 0, i64 %117
  store i32 %115, i32* %118, align 4
  br label %119

119:                                              ; preds = %110, %107
  br label %120

120:                                              ; preds = %119
  %121 = load i32, i32* %9, align 4
  %122 = add nsw i32 %121, 1
  store i32 %122, i32* %9, align 4
  br label %80

123:                                              ; preds = %80
  br label %124

124:                                              ; preds = %123
  %125 = load i32, i32* %7, align 4
  %126 = add nsw i32 %125, 1
  store i32 %126, i32* %7, align 4
  br label %71

127:                                              ; preds = %71
  br label %128

128:                                              ; preds = %127
  %129 = load i32, i32* %4, align 4
  %130 = add nsw i32 %129, 1
  store i32 %130, i32* %4, align 4
  br label %63

131:                                              ; preds = %63
  store i32 0, i32* %8, align 4
  br label %132

132:                                              ; preds = %142, %131
  %133 = load i32, i32* %8, align 4
  %134 = load i32, i32* %3, align 4
  %135 = icmp slt i32 %133, %134
  br i1 %135, label %136, label %145

136:                                              ; preds = %132
  %137 = load i32, i32* %8, align 4
  %138 = sext i32 %137 to i64
  %139 = getelementptr inbounds [100 x i32], [100 x i32]* %6, i64 0, i64 %138
  %140 = load i32, i32* %139, align 4
  %141 = call i32 (i8*, ...) @printf(i8* getelementptr inbounds ([4 x i8], [4 x i8]* @.str.1, i64 0, i64 0), i32 %140)
  br label %142

142:                                              ; preds = %136
  %143 = load i32, i32* %8, align 4
  %144 = add nsw i32 %143, 1
  store i32 %144, i32* %8, align 4
  br label %132

145:                                              ; preds = %132
  ret i32 0
}

declare dso_local i32 @__isoc99_scanf(i8*, ...) #1

declare dso_local i32 @printf(i8*, ...) #1


!llvm.module.flags = !{!0}
!llvm.ident = !{!1}

!0 = !{i32 1, !"wchar_size", i32 4}
!1 = !{!"clang version 10.0.0-4ubuntu1 "}
